target datalayout = "e-m:e-p270:32:32-p271:32:32-p272:64:64-i64:64-i128:128-f80:128-n8:16:32:64-S128"
target triple = "x86_64-unknown-linux-gnu"

%"class.cvc5::internal::NodeTemplate" = type { ptr }
%"class.cvc5::internal::theory::strings::EagerSolver" = type { %"class.cvc5::internal::EnvObj", ptr, ptr, %"class.cvc5::internal::theory::strings::ArithEntail", %"class.cvc5::internal::theory::strings::RegExpEntail" }
%"class.cvc5::internal::EnvObj" = type { ptr, ptr }
%"class.cvc5::internal::theory::strings::ArithEntail" = type { ptr, %"class.cvc5::internal::NodeTemplate" }
%"class.cvc5::internal::theory::strings::RegExpEntail" = type { %"class.cvc5::internal::theory::strings::ArithEntail", %"class.cvc5::internal::NodeTemplate", %"class.cvc5::internal::NodeTemplate" }

@_ZTVN4cvc58internal6theory7strings11EagerSolverE = hidden unnamed_addr constant { [4 x ptr] } { [4 x ptr] [ptr null, ptr @_ZTIN4cvc58internal6theory7strings11EagerSolverE, ptr @_ZN4cvc58internal6theory7strings11EagerSolverD1Ev, ptr @_ZN4cvc58internal6theory7strings11EagerSolverD0Ev] }, align 8

; Function Attrs: mustprogress nounwind uwtable
define linkonce_odr hidden void @_ZN4cvc58internal6EnvObjD2Ev(ptr noundef nonnull align 8 dereferenceable(16) %this) unnamed_addr #5 comdat align 2 {
entry:
  %this.addr = alloca ptr, align 8
  store ptr %this, ptr %this.addr, align 8
  ret void
}

; Function Attrs: mustprogress uwtable
define hidden void @_ZN4cvc58internal6theory7strings11EagerSolverC2ERNS0_3EnvERNS2_11SolverStateERNS2_12TermRegistryE(ptr noundef nonnull align 8 dereferenceable(80) %this, ptr noundef nonnull align 8 dereferenceable(576) %env, ptr noundef nonnull align 8 dereferenceable(480) %state, ptr noundef nonnull align 8 dereferenceable(880) %treg) unnamed_addr #4 align 2 personality ptr @__gxx_personality_v0 {
entry:
  %this.addr = alloca ptr, align 8
  %env.addr = alloca ptr, align 8
  %state.addr = alloca ptr, align 8
  %treg.addr = alloca ptr, align 8
  %exn.slot = alloca ptr, align 8
  %ehselector.slot = alloca i32, align 4
  store ptr %this, ptr %this.addr, align 8
  store ptr %env, ptr %env.addr, align 8
  store ptr %state, ptr %state.addr, align 8
  store ptr %treg, ptr %treg.addr, align 8
  %this1 = load ptr, ptr %this.addr, align 8
  %0 = load ptr, ptr %env.addr, align 8
  call void @_ZN4cvc58internal6EnvObjC2ERNS0_3EnvE(ptr noundef nonnull align 8 dereferenceable(16) %this1, ptr noundef nonnull align 8 dereferenceable(576) %0)
  store ptr getelementptr inbounds ({ [4 x ptr] }, ptr @_ZTVN4cvc58internal6theory7strings11EagerSolverE, i32 0, i32 0, i32 2), ptr %this1, align 8
  %d_state = getelementptr inbounds %"class.cvc5::internal::theory::strings::EagerSolver", ptr %this1, i32 0, i32 1
  %1 = load ptr, ptr %state.addr, align 8
  store ptr %1, ptr %d_state, align 8
  %d_treg = getelementptr inbounds %"class.cvc5::internal::theory::strings::EagerSolver", ptr %this1, i32 0, i32 2
  %2 = load ptr, ptr %treg.addr, align 8
  store ptr %2, ptr %d_treg, align 8
  %d_aent = getelementptr inbounds %"class.cvc5::internal::theory::strings::EagerSolver", ptr %this1, i32 0, i32 3
  %3 = load ptr, ptr %env.addr, align 8
  %call = invoke noundef ptr @_ZN4cvc58internal3Env11getRewriterEv(ptr noundef nonnull align 8 dereferenceable(576) %3)
          to label %invoke.cont unwind label %lpad

invoke.cont:                                      ; preds = %entry
  invoke void @_ZN4cvc58internal6theory7strings11ArithEntailC1EPNS1_8RewriterE(ptr noundef nonnull align 8 dereferenceable(16) %d_aent, ptr noundef %call)
          to label %invoke.cont2 unwind label %lpad

invoke.cont2:                                     ; preds = %invoke.cont
  %d_rent = getelementptr inbounds %"class.cvc5::internal::theory::strings::EagerSolver", ptr %this1, i32 0, i32 4
  %4 = load ptr, ptr %env.addr, align 8
  %call5 = invoke noundef ptr @_ZN4cvc58internal3Env11getRewriterEv(ptr noundef nonnull align 8 dereferenceable(576) %4)
          to label %invoke.cont4 unwind label %lpad3

invoke.cont4:                                     ; preds = %invoke.cont2
  invoke void @_ZN4cvc58internal6theory7strings12RegExpEntailC1EPNS1_8RewriterE(ptr noundef nonnull align 8 dereferenceable(32) %d_rent, ptr noundef %call5)
          to label %invoke.cont6 unwind label %lpad3

invoke.cont6:                                     ; preds = %invoke.cont4
  ret void

lpad:                                             ; preds = %invoke.cont, %entry
  %5 = landingpad { ptr, i32 }
          cleanup
  %6 = extractvalue { ptr, i32 } %5, 0
  store ptr %6, ptr %exn.slot, align 8
  %7 = extractvalue { ptr, i32 } %5, 1
  store i32 %7, ptr %ehselector.slot, align 4
  br label %ehcleanup

lpad3:                                            ; preds = %invoke.cont4, %invoke.cont2
  %8 = landingpad { ptr, i32 }
          cleanup
  %9 = extractvalue { ptr, i32 } %8, 0
  store ptr %9, ptr %exn.slot, align 8
  %10 = extractvalue { ptr, i32 } %8, 1
  store i32 %10, ptr %ehselector.slot, align 4
  call void @_ZN4cvc58internal6theory7strings11ArithEntailD2Ev(ptr noundef nonnull align 8 dereferenceable(16) %d_aent) #3
  br label %ehcleanup

ehcleanup:                                        ; preds = %lpad3, %lpad
  call void @_ZN4cvc58internal6EnvObjD2Ev(ptr noundef nonnull align 8 dereferenceable(16) %this1) #3
  br label %eh.resume

eh.resume:                                        ; preds = %ehcleanup
  %exn = load ptr, ptr %exn.slot, align 8
  %sel = load i32, ptr %ehselector.slot, align 4
  %lpad.val = insertvalue { ptr, i32 } poison, ptr %exn, 0
  %lpad.val7 = insertvalue { ptr, i32 } %lpad.val, i32 %sel, 1
  resume { ptr, i32 } %lpad.val7
}