; Function Attrs: mustprogress uwtable
define hidden void @_ZN4cvc58internal6theory7strings11EagerSolverC2ERNS0_3EnvERNS2_11SolverStateERNS2_12TermRegistryE(ptr noundef nonnull align 8 dereferenceable(80) %this, ptr noundef nonnull align 8 dereferenceable(576) %env, ptr noundef nonnull align 8 dereferenceable(480) %state, ptr noundef nonnull align 8 dereferenceable(880) %treg) unnamed_addr #3 align 2 personality ptr @__gxx_personality_v0 {
entry:
  tail call void @_ZN4cvc58internal6EnvObjC2ERNS0_3EnvE(ptr noundef nonnull align 8 dereferenceable(16) %this, ptr noundef nonnull align 8 dereferenceable(576) %env)
  store ptr getelementptr inbounds ({ [4 x ptr] }, ptr @_ZTVN4cvc58internal6theory7strings11EagerSolverE, i64 0, i32 0, i64 2), ptr %this, align 8
  %d_state = getelementptr inbounds i8, ptr %this, i64 16
  store ptr %state, ptr %d_state, align 8
  %d_treg = getelementptr inbounds i8, ptr %this, i64 24
  store ptr %treg, ptr %d_treg, align 8
  %d_aent = getelementptr inbounds i8, ptr %this, i64 32
  %call = tail call noundef ptr @_ZN4cvc58internal3Env11getRewriterEv(ptr noundef nonnull align 8 dereferenceable(576) %env)
  tail call void @_ZN4cvc58internal6theory7strings11ArithEntailC1EPNS1_8RewriterE(ptr noundef nonnull align 8 dereferenceable(16) %d_aent, ptr noundef %call)
  %call5 = invoke noundef ptr @_ZN4cvc58internal3Env11getRewriterEv(ptr noundef nonnull align 8 dereferenceable(576) %env)
          to label %invoke.cont4 unwind label %lpad3

invoke.cont4:                                     ; preds = %entry
  %d_rent = getelementptr inbounds i8, ptr %this, i64 48
  invoke void @_ZN4cvc58internal6theory7strings12RegExpEntailC1EPNS1_8RewriterE(ptr noundef nonnull align 8 dereferenceable(32) %d_rent, ptr noundef %call5)
          to label %invoke.cont6 unwind label %lpad3

invoke.cont6:                                     ; preds = %invoke.cont4
  ret void

lpad3:                                            ; preds = %invoke.cont4, %entry
  %0 = landingpad { ptr, i32 }
          cleanup
  tail call void @_ZN4cvc58internal6theory7strings11ArithEntailD2Ev(ptr noundef nonnull align 8 dereferenceable(16) %d_aent) #12
  resume { ptr, i32 } %0
}